target datalayout = "e-m:e-p270:32:32-p271:32:32-p272:64:64-i64:64-i128:128-f80:128-n8:16:32:64-S128"
target triple = "x86_64-pc-linux-gnu"

%class.ptr_vector = type { %class.vector }
%class.vector = type { ptr }
%"class.mbp::term" = type { %class.obj_ref, ptr, ptr, ptr, i16, %class.ptr_vector, %class.ptr_vector, %"struct.mbp::term::class_props" }
%class.obj_ref = type { ptr, ptr }
%"struct.mbp::term::class_props" = type { i8, i32, %class.bit_vector }
%class.bit_vector = type { i32, i32, ptr }
%"class.mbp::term::children" = type { ptr }

; Function Attrs: mustprogress uwtable
define linkonce_odr hidden noundef ptr @_ZNK6vectorIPN3mbp4termELb0EjE3endEv(ptr noundef nonnull align 8 dereferenceable(8) %0) #4 comdat align 2 {
  %2 = alloca ptr, align 8
  store ptr %0, ptr %2, align 8, !tbaa !42
  %3 = load ptr, ptr %2, align 8
  %4 = getelementptr inbounds nuw %class.vector, ptr %3, i32 0, i32 0
  %5 = load ptr, ptr %4, align 8, !tbaa !44
  %6 = call noundef i32 @_ZNK6vectorIPN3mbp4termELb0EjE4sizeEv(ptr noundef nonnull align 8 dereferenceable(8) %3)
  %7 = zext i32 %6 to i64
  %8 = getelementptr inbounds nuw ptr, ptr %5, i64 %7
  ret ptr %8
}

; Function Attrs: mustprogress nounwind uwtable
define linkonce_odr hidden noundef ptr @_ZNK6vectorIPN3mbp4termELb0EjE5beginEv(ptr noundef nonnull align 8 dereferenceable(8) %0) #6 comdat align 2 {
  %2 = alloca ptr, align 8
  store ptr %0, ptr %2, align 8, !tbaa !42
  %3 = load ptr, ptr %2, align 8
  %4 = getelementptr inbounds nuw %class.vector, ptr %3, i32 0, i32 0
  %5 = load ptr, ptr %4, align 8, !tbaa !44
  ret ptr %5
}

; Function Attrs: mustprogress nounwind uwtable
define linkonce_odr hidden noundef i32 @_ZNK6vectorIPN3mbp4termELb0EjE4sizeEv(ptr noundef nonnull align 8 dereferenceable(8) %0) #6 comdat align 2 {
  %2 = alloca i32, align 4
  %3 = alloca ptr, align 8
  store ptr %0, ptr %3, align 8, !tbaa !42
  %4 = load ptr, ptr %3, align 8
  %5 = getelementptr inbounds nuw %class.vector, ptr %4, i32 0, i32 0
  %6 = load ptr, ptr %5, align 8, !tbaa !44
  %7 = icmp eq ptr %6, null
  br i1 %7, label %8, label %9

8:                                                ; preds = %1
  store i32 0, ptr %2, align 4
  br label %14

9:                                                ; preds = %1
  %10 = getelementptr inbounds nuw %class.vector, ptr %4, i32 0, i32 0
  %11 = load ptr, ptr %10, align 8, !tbaa !44
  %12 = getelementptr inbounds i32, ptr %11, i64 -1
  %13 = load i32, ptr %12, align 4, !tbaa !27
  store i32 %13, ptr %2, align 4
  br label %14

14:                                               ; preds = %9, %8
  %15 = load i32, ptr %2, align 4
  ret i32 %15
}

; Function Attrs: mustprogress nounwind uwtable
define linkonce_odr hidden noundef ptr @_ZNK3mbp4term8get_reprEv(ptr noundef nonnull align 8 dereferenceable(88) %0) #6 comdat align 2 {
  %2 = alloca ptr, align 8
  store ptr %0, ptr %2, align 8, !tbaa !20
  %3 = load ptr, ptr %2, align 8
  %4 = getelementptr inbounds nuw %"class.mbp::term", ptr %3, i32 0, i32 2
  %5 = load ptr, ptr %4, align 8, !tbaa !205
  ret ptr %5
}

; Function Attrs: mustprogress uwtable
define linkonce_odr hidden noundef ptr @_ZNK3mbp4term8children3endEv(ptr noundef nonnull align 8 dereferenceable(8) %0) #4 comdat align 2 {
  %2 = alloca ptr, align 8
  store ptr %0, ptr %2, align 8, !tbaa !100
  %3 = load ptr, ptr %2, align 8
  %4 = getelementptr inbounds nuw %"class.mbp::term::children", ptr %3, i32 0, i32 0
  %5 = load ptr, ptr %4, align 8, !tbaa !250
  %6 = getelementptr inbounds nuw %"class.mbp::term", ptr %5, i32 0, i32 6
  %7 = call noundef ptr @_ZNK6vectorIPN3mbp4termELb0EjE3endEv(ptr noundef nonnull align 8 dereferenceable(8) %6)
  ret ptr %7
}

; Function Attrs: mustprogress nounwind uwtable
define linkonce_odr hidden noundef ptr @_ZNK3mbp4term8children5beginEv(ptr noundef nonnull align 8 dereferenceable(8) %0) #6 comdat align 2 {
  %2 = alloca ptr, align 8
  store ptr %0, ptr %2, align 8, !tbaa !100
  %3 = load ptr, ptr %2, align 8
  %4 = getelementptr inbounds nuw %"class.mbp::term::children", ptr %3, i32 0, i32 0
  %5 = load ptr, ptr %4, align 8, !tbaa !250
  %6 = getelementptr inbounds nuw %"class.mbp::term", ptr %5, i32 0, i32 6
  %7 = call noundef ptr @_ZNK6vectorIPN3mbp4termELb0EjE5beginEv(ptr noundef nonnull align 8 dereferenceable(8) %6)
  ret ptr %7
}

; Function Attrs: mustprogress nounwind uwtable
define linkonce_odr hidden void @_ZN3mbp4term8childrenC2EPKS0_(ptr noundef nonnull align 8 dereferenceable(8) %0, ptr noundef %1) unnamed_addr #6 comdat align 2 {
  %3 = alloca ptr, align 8
  %4 = alloca ptr, align 8
  store ptr %0, ptr %3, align 8, !tbaa !100
  store ptr %1, ptr %4, align 8, !tbaa !20
  %5 = load ptr, ptr %3, align 8
  %6 = getelementptr inbounds nuw %"class.mbp::term::children", ptr %5, i32 0, i32 0
  %7 = load ptr, ptr %4, align 8, !tbaa !20
  store ptr %7, ptr %6, align 8, !tbaa !20
  ret void
}

; Function Attrs: mustprogress uwtable
define linkonce_odr hidden noundef i32 @_ZNK3mbp4term3degEv(ptr noundef nonnull align 8 dereferenceable(88) %0) #4 comdat align 2 {
  %2 = alloca ptr, align 8
  store ptr %0, ptr %2, align 8, !tbaa !20
  %3 = load ptr, ptr %2, align 8
  %4 = getelementptr inbounds nuw %"class.mbp::term", ptr %3, i32 0, i32 6
  %5 = call noundef i32 @_ZNK6vectorIPN3mbp4termELb0EjE4sizeEv(ptr noundef nonnull align 8 dereferenceable(8) %4)
  ret i32 %5
}

; Function Attrs: mustprogress uwtable
define hidden noundef zeroext i1 @_ZN3mbp19all_children_pickedEPNS_4termE(ptr noundef %0) #4 {
  %2 = alloca i1, align 1
  %3 = alloca ptr, align 8
  %4 = alloca ptr, align 8
  %5 = alloca %"class.mbp::term::children", align 8
  %6 = alloca ptr, align 8
  %7 = alloca ptr, align 8
  %8 = alloca i32, align 4
  %9 = alloca ptr, align 8
  store ptr %0, ptr %3, align 8, !tbaa !20
  %10 = load ptr, ptr %3, align 8, !tbaa !20
  %11 = call noundef i32 @_ZNK3mbp4term3degEv(ptr noundef nonnull align 8 dereferenceable(88) %10)
  %12 = icmp eq i32 %11, 0
  br i1 %12, label %13, label %14

13:                                               ; preds = %1
  store i1 true, ptr %2, align 1
  br label %42

14:                                               ; preds = %1
  call void @llvm.lifetime.start.p0(i64 8, ptr %4) #3
  call void @llvm.lifetime.start.p0(i64 8, ptr %5) #3
  %15 = load ptr, ptr %3, align 8, !tbaa !20
  call void @_ZN3mbp4term8childrenC2EPKS0_(ptr noundef nonnull align 8 dereferenceable(8) %5, ptr noundef %15)
  store ptr %5, ptr %4, align 8, !tbaa !100
  call void @llvm.lifetime.start.p0(i64 8, ptr %6) #3
  %16 = load ptr, ptr %4, align 8, !tbaa !100
  %17 = call noundef ptr @_ZNK3mbp4term8children5beginEv(ptr noundef nonnull align 8 dereferenceable(8) %16)
  store ptr %17, ptr %6, align 8, !tbaa !41
  call void @llvm.lifetime.start.p0(i64 8, ptr %7) #3
  %18 = load ptr, ptr %4, align 8, !tbaa !100
  %19 = call noundef ptr @_ZNK3mbp4term8children3endEv(ptr noundef nonnull align 8 dereferenceable(8) %18)
  store ptr %19, ptr %7, align 8, !tbaa !41
  br label %20

20:                                               ; preds = %36, %14
  %21 = load ptr, ptr %6, align 8, !tbaa !41
  %22 = load ptr, ptr %7, align 8, !tbaa !41
  %23 = icmp ne ptr %21, %22
  br i1 %23, label %25, label %24

24:                                               ; preds = %20
  store i32 2, ptr %8, align 4
  br label %39

25:                                               ; preds = %20
  call void @llvm.lifetime.start.p0(i64 8, ptr %9) #3
  %26 = load ptr, ptr %6, align 8, !tbaa !41
  %27 = load ptr, ptr %26, align 8, !tbaa !20
  store ptr %27, ptr %9, align 8, !tbaa !20
  %28 = load ptr, ptr %9, align 8, !tbaa !20
  %29 = call noundef ptr @_ZNK3mbp4term8get_reprEv(ptr noundef nonnull align 8 dereferenceable(88) %28)
  %30 = icmp ne ptr %29, null
  br i1 %30, label %32, label %31

31:                                               ; preds = %25
  store i1 false, ptr %2, align 1
  store i32 1, ptr %8, align 4
  br label %33

32:                                               ; preds = %25
  store i32 0, ptr %8, align 4
  br label %33

33:                                               ; preds = %32, %31
  call void @llvm.lifetime.end.p0(i64 8, ptr %9) #3
  %34 = load i32, ptr %8, align 4
  switch i32 %34, label %39 [
    i32 0, label %35
  ]

35:                                               ; preds = %33
  br label %36

36:                                               ; preds = %35
  %37 = load ptr, ptr %6, align 8, !tbaa !41
  %38 = getelementptr inbounds nuw ptr, ptr %37, i32 1
  store ptr %38, ptr %6, align 8, !tbaa !41
  br label %20

39:                                               ; preds = %33, %24
  call void @llvm.lifetime.end.p0(i64 8, ptr %7) #3
  call void @llvm.lifetime.end.p0(i64 8, ptr %6) #3
  call void @llvm.lifetime.end.p0(i64 8, ptr %5) #3
  call void @llvm.lifetime.end.p0(i64 8, ptr %4) #3
  %40 = load i32, ptr %8, align 4
  switch i32 %40, label %44 [
    i32 2, label %41
    i32 1, label %42
  ]

41:                                               ; preds = %39
  store i1 true, ptr %2, align 1
  br label %42

42:                                               ; preds = %41, %39, %13
  %43 = load i1, ptr %2, align 1
  ret i1 %43

44:                                               ; preds = %39
  unreachable
}