; Function Attrs: mustprogress nofree norecurse nosync nounwind willreturn memory(read, inaccessiblemem: none) uwtable
define hidden noundef zeroext i1 @_ZN3mbp19all_children_pickedEPNS_4termE(ptr noundef readonly captures(none) %0) local_unnamed_addr #8 {
  %2 = getelementptr inbounds nuw i8, ptr %0, i64 56
  %3 = load ptr, ptr %2, align 8, !tbaa !45
  %4 = icmp eq ptr %3, null
  br i1 %4, label %_ZNK3mbp4term3degEv.exit.thread, label %_ZNK3mbp4term3degEv.exit

_ZNK3mbp4term3degEv.exit:                         ; preds = %1
  %5 = getelementptr inbounds i8, ptr %3, i64 -4
  %6 = load i32, ptr %5, align 4, !tbaa !34
  %7 = icmp eq i32 %6, 0
  br i1 %7, label %_ZNK3mbp4term3degEv.exit.thread, label %.lr.ph.preheader

.lr.ph.preheader:                                 ; preds = %_ZNK3mbp4term3degEv.exit
  %8 = zext i32 %6 to i64
  %9 = getelementptr inbounds nuw ptr, ptr %3, i64 %8
  br label %.lr.ph

.lr.ph:                                           ; preds = %.lr.ph, %.lr.ph.preheader
  %.01318 = phi ptr [ %3, %.lr.ph.preheader ], [ %13, %.lr.ph ]
  %10 = load ptr, ptr %.01318, align 8, !tbaa !46
  %11 = getelementptr inbounds nuw i8, ptr %10, i64 24
  %12 = load ptr, ptr %11, align 8, !tbaa !198
  %.not14.not.not = icmp ne ptr %12, null
  %13 = getelementptr inbounds nuw i8, ptr %.01318, i64 8
  %.not = icmp ne ptr %13, %9
  %or.cond.not = select i1 %.not14.not.not, i1 %.not, i1 false
  br i1 %or.cond.not, label %.lr.ph, label %_ZNK3mbp4term3degEv.exit.thread

_ZNK3mbp4term3degEv.exit.thread:                  ; preds = %.lr.ph, %1, %_ZNK3mbp4term3degEv.exit
  %.0 = phi i1 [ true, %_ZNK3mbp4term3degEv.exit ], [ true, %1 ], [ %.not14.not.not, %.lr.ph ]
  ret i1 %.0
}